; Function Attrs: nounwind uwtable
define hidden i32 @cmsIT8EnumDataFormat(ptr nocapture noundef %0, ptr noundef writeonly %1) local_unnamed_addr #0 {
  %3 = getelementptr inbounds i8, ptr %0, i64 4
  %4 = load i32, ptr %3, align 4
  %5 = load i32, ptr %0, align 8
  %.not.i = icmp ult i32 %4, %5
  br i1 %.not.i, label %8, label %6

6:                                                ; preds = %2
  tail call void (ptr, ptr, ...) @SynError(ptr noundef nonnull %0, ptr noundef nonnull @.str.81, i32 noundef %4)
  %7 = getelementptr inbounds i8, ptr %0, i64 16
  br label %GetTable.exit

8:                                                ; preds = %2
  %9 = getelementptr inbounds i8, ptr %0, i64 16
  %10 = zext i32 %4 to i64
  %11 = getelementptr inbounds %struct._Table, ptr %9, i64 %10
  br label %GetTable.exit

GetTable.exit:                                    ; preds = %6, %8
  %.0.i = phi ptr [ %7, %6 ], [ %11, %8 ]
  %.not = icmp eq ptr %1, null
  br i1 %.not, label %15, label %12

12:                                               ; preds = %GetTable.exit
  %13 = getelementptr inbounds i8, ptr %.0.i, i64 1048
  %14 = load ptr, ptr %13, align 8
  store ptr %14, ptr %1, align 8
  br label %15

15:                                               ; preds = %12, %GetTable.exit
  %16 = getelementptr inbounds i8, ptr %.0.i, i64 1024
  %17 = load i32, ptr %16, align 8
  ret i32 %17
}